target datalayout = "e-m:e-p270:32:32-p271:32:32-p272:64:64-i64:64-i128:128-f80:128-n8:16:32:64-S128"
target triple = "x86_64-pc-linux-gnu"

%struct.mz_zip_archive_file_stat = type { i32, i32, i16, i16, i16, i16, i64, i32, i64, i64, i16, i32, i64, i32, [260 x i8], [256 x i8] }
%struct.utimbuf = type { i64, i64 }

@.str.22 = private unnamed_addr constant [3 x i8] c"wb\00", align 1

; Function Attrs: mustprogress nounwind uwtable
define internal noundef i32 @_ZL21mz_zip_set_file_timesPKcll(ptr noundef %0, i64 noundef %1, i64 noundef %2) #4 {
  %4 = alloca ptr, align 8
  %5 = alloca i64, align 8
  %6 = alloca i64, align 8
  %7 = alloca %struct.utimbuf, align 8
  store ptr %0, ptr %4, align 8
  store i64 %1, ptr %5, align 8
  store i64 %2, ptr %6, align 8
  %8 = load i64, ptr %5, align 8
  %9 = getelementptr inbounds %struct.utimbuf, ptr %7, i32 0, i32 0
  store i64 %8, ptr %9, align 8
  %10 = load i64, ptr %6, align 8
  %11 = getelementptr inbounds %struct.utimbuf, ptr %7, i32 0, i32 1
  store i64 %10, ptr %11, align 8
  %12 = load ptr, ptr %4, align 8
  %13 = call i32 @utime(ptr noundef %12, ptr noundef %7) #3
  %14 = icmp ne i32 %13, 0
  %15 = xor i1 %14, true
  %16 = zext i1 %15 to i32
  ret i32 %16
}

; Function Attrs: mustprogress uwtable
define i32 @mz_zip_reader_extract_to_file(ptr noundef %0, i32 noundef %1, ptr noundef %2, i32 noundef %3) #5 {
  %5 = alloca i32, align 4
  %6 = alloca ptr, align 8
  %7 = alloca i32, align 4
  %8 = alloca ptr, align 8
  %9 = alloca i32, align 4
  %10 = alloca i32, align 4
  %11 = alloca %struct.mz_zip_archive_file_stat, align 8
  %12 = alloca ptr, align 8
  store ptr %0, ptr %6, align 8
  store i32 %1, ptr %7, align 4
  store ptr %2, ptr %8, align 8
  store i32 %3, ptr %9, align 4
  %13 = load ptr, ptr %6, align 8
  %14 = load i32, ptr %7, align 4
  %15 = call i32 @mz_zip_reader_file_stat(ptr noundef %13, i32 noundef %14, ptr noundef %11)
  %16 = icmp ne i32 %15, 0
  br i1 %16, label %18, label %17

17:                                               ; preds = %4
  store i32 0, ptr %5, align 4
  br label %46

18:                                               ; preds = %4
  %19 = load ptr, ptr %8, align 8
  %20 = call noalias ptr @fopen64(ptr noundef %19, ptr noundef @.str.22)
  store ptr %20, ptr %12, align 8
  %21 = load ptr, ptr %12, align 8
  %22 = icmp ne ptr %21, null
  br i1 %22, label %24, label %23

23:                                               ; preds = %18
  store i32 0, ptr %5, align 4
  br label %46

24:                                               ; preds = %18
  %25 = load ptr, ptr %6, align 8
  %26 = load i32, ptr %7, align 4
  %27 = load ptr, ptr %12, align 8
  %28 = load i32, ptr %9, align 4
  %29 = call i32 @mz_zip_reader_extract_to_callback(ptr noundef %25, i32 noundef %26, ptr noundef @_ZL26mz_zip_file_write_callbackPvyPKvm, ptr noundef %27, i32 noundef %28)
  store i32 %29, ptr %10, align 4
  %30 = load ptr, ptr %12, align 8
  %31 = call i32 @fclose(ptr noundef %30)
  %32 = icmp eq i32 %31, -1
  br i1 %32, label %33, label %34

33:                                               ; preds = %24
  store i32 0, ptr %5, align 4
  br label %46

34:                                               ; preds = %24
  %35 = load i32, ptr %10, align 4
  %36 = icmp ne i32 %35, 0
  br i1 %36, label %37, label %44

37:                                               ; preds = %34
  %38 = load ptr, ptr %8, align 8
  %39 = getelementptr inbounds %struct.mz_zip_archive_file_stat, ptr %11, i32 0, i32 6
  %40 = load i64, ptr %39, align 8
  %41 = getelementptr inbounds %struct.mz_zip_archive_file_stat, ptr %11, i32 0, i32 6
  %42 = load i64, ptr %41, align 8
  %43 = call noundef i32 @_ZL21mz_zip_set_file_timesPKcll(ptr noundef %38, i64 noundef %40, i64 noundef %42)
  br label %44

44:                                               ; preds = %37, %34
  %45 = load i32, ptr %10, align 4
  store i32 %45, ptr %5, align 4
  br label %46

46:                                               ; preds = %44, %33, %23, %17
  %47 = load i32, ptr %5, align 4
  ret i32 %47
}

; Function Attrs: mustprogress uwtable
define i32 @mz_zip_reader_extract_file_to_file(ptr noundef %0, ptr noundef %1, ptr noundef %2, i32 noundef %3) #5 {
  %5 = alloca i32, align 4
  %6 = alloca ptr, align 8
  %7 = alloca ptr, align 8
  %8 = alloca ptr, align 8
  %9 = alloca i32, align 4
  %10 = alloca i32, align 4
  store ptr %0, ptr %6, align 8
  store ptr %1, ptr %7, align 8
  store ptr %2, ptr %8, align 8
  store i32 %3, ptr %9, align 4
  %11 = load ptr, ptr %6, align 8
  %12 = load ptr, ptr %7, align 8
  %13 = load i32, ptr %9, align 4
  %14 = call i32 @mz_zip_reader_locate_file(ptr noundef %11, ptr noundef %12, ptr noundef null, i32 noundef %13)
  store i32 %14, ptr %10, align 4
  %15 = load i32, ptr %10, align 4
  %16 = icmp slt i32 %15, 0
  br i1 %16, label %17, label %18

17:                                               ; preds = %4
  store i32 0, ptr %5, align 4
  br label %24

18:                                               ; preds = %4
  %19 = load ptr, ptr %6, align 8
  %20 = load i32, ptr %10, align 4
  %21 = load ptr, ptr %8, align 8
  %22 = load i32, ptr %9, align 4
  %23 = call i32 @mz_zip_reader_extract_to_file(ptr noundef %19, i32 noundef %20, ptr noundef %21, i32 noundef %22)
  store i32 %23, ptr %5, align 4
  br label %24

24:                                               ; preds = %18, %17
  %25 = load i32, ptr %5, align 4
  ret i32 %25
}