; Function Attrs: mustprogress uwtable
define noundef i32 @mz_zip_reader_extract_file_to_file(ptr noundef %0, ptr noundef %1, ptr nocapture noundef readonly %2, i32 noundef %3) local_unnamed_addr #9 {
  %5 = alloca %struct.utimbuf, align 8
  %6 = alloca %struct.mz_zip_archive_file_stat, align 8
  %7 = tail call i32 @mz_zip_reader_locate_file(ptr noundef %0, ptr noundef %1, ptr noundef null, i32 noundef %3)
  %8 = icmp slt i32 %7, 0
  br i1 %8, label %22, label %9

9:                                                ; preds = %4
  call void @llvm.lifetime.start.p0(i64 584, ptr nonnull %6)
  %10 = call i32 @mz_zip_reader_file_stat(ptr noundef %0, i32 noundef %7, ptr noundef nonnull %6), !range !16
  %.not.i = icmp eq i32 %10, 0
  br i1 %.not.i, label %mz_zip_reader_extract_to_file.exit, label %11

11:                                               ; preds = %9
  %12 = call noalias ptr @fopen64(ptr noundef %2, ptr noundef nonnull @.str.22)
  %.not13.i = icmp eq ptr %12, null
  br i1 %.not13.i, label %mz_zip_reader_extract_to_file.exit, label %13

13:                                               ; preds = %11
  %14 = call i32 @mz_zip_reader_extract_to_callback(ptr noundef %0, i32 noundef %7, ptr noundef nonnull @_ZL26mz_zip_file_write_callbackPvyPKvm, ptr noundef nonnull %12, i32 noundef %3), !range !16
  %15 = call i32 @fclose(ptr noundef nonnull %12)
  %16 = icmp eq i32 %15, -1
  %.not14.i = icmp eq i32 %14, 0
  %or.cond.i = select i1 %16, i1 true, i1 %.not14.i
  br i1 %or.cond.i, label %mz_zip_reader_extract_to_file.exit, label %17

17:                                               ; preds = %13
  %18 = getelementptr inbounds i8, ptr %6, i64 16
  %19 = load i64, ptr %18, align 8
  call void @llvm.lifetime.start.p0(i64 16, ptr nonnull %5)
  store i64 %19, ptr %5, align 8
  %20 = getelementptr inbounds i8, ptr %5, i64 8
  store i64 %19, ptr %20, align 8
  %21 = call i32 @utime(ptr noundef %2, ptr noundef nonnull %5) #41
  call void @llvm.lifetime.end.p0(i64 16, ptr nonnull %5)
  br label %mz_zip_reader_extract_to_file.exit

mz_zip_reader_extract_to_file.exit:               ; preds = %9, %11, %13, %17
  %.0.i = phi i32 [ 0, %9 ], [ 0, %11 ], [ 0, %13 ], [ 1, %17 ]
  call void @llvm.lifetime.end.p0(i64 584, ptr nonnull %6)
  br label %22

22:                                               ; preds = %4, %mz_zip_reader_extract_to_file.exit
  %.0 = phi i32 [ %.0.i, %mz_zip_reader_extract_to_file.exit ], [ 0, %4 ]
  ret i32 %.0
}